; Function Attrs: mustprogress uwtable
define void @_ZN3net30QuicMultipathSentPacketManager16SetDebugDelegateEPNS_30QuicSentPacketManagerInterface13DebugDelegateE(ptr noundef nonnull readonly align 8 captures(none) dereferenceable(40) %0, ptr noundef %1) unnamed_addr #0 align 2 {
  %3 = alloca %"struct.net::QuicMultipathSentPacketManager::PathSentPacketManagerInfo", align 8
  %4 = getelementptr inbounds nuw i8, ptr %0, i64 8
  %5 = load ptr, ptr %4, align 8, !tbaa !20
  %6 = getelementptr inbounds nuw i8, ptr %0, i64 16
  %7 = load ptr, ptr %6, align 8, !tbaa !20
  %.not7 = icmp eq ptr %5, %7
  br i1 %.not7, label %._crit_edge, label %.lr.ph

._crit_edge:                                      ; preds = %14, %2
  ret void

.lr.ph:                                           ; preds = %2, %14
  %.sroa.04.08 = phi ptr [ %15, %14 ], [ %5, %2 ]
  call void @llvm.lifetime.start.p0(i64 16, ptr nonnull %3) #17
  call void @_ZN3net30QuicMultipathSentPacketManager25PathSentPacketManagerInfoC1ERKS1_(ptr noundef nonnull align 8 dereferenceable(12) %3, ptr noundef nonnull align 8 dereferenceable(12) %.sroa.04.08)
  %8 = load ptr, ptr %3, align 8, !tbaa !21
  %9 = icmp eq ptr %8, null
  br i1 %9, label %14, label %10

10:                                               ; preds = %.lr.ph
  %11 = load ptr, ptr %8, align 8, !tbaa !3
  %12 = getelementptr inbounds nuw i8, ptr %11, i64 240
  %13 = load ptr, ptr %12, align 8
  call void %13(ptr noundef nonnull align 8 dereferenceable(8) %8, ptr noundef %1)
  br label %14

14:                                               ; preds = %.lr.ph, %10
  call void @llvm.lifetime.end.p0(i64 16, ptr nonnull %3) #17
  %15 = getelementptr inbounds nuw i8, ptr %.sroa.04.08, i64 16
  %.not = icmp eq ptr %15, %7
  br i1 %.not, label %._crit_edge, label %.lr.ph
}